; Function Attrs: mustprogress nofree norecurse nosync nounwind willreturn memory(readwrite, inaccessiblemem: none) uwtable
define internal range(i32 0, 9) i32 @ctrl_get_tile_data(ptr nocapture noundef readonly %0, ptr nocapture noundef %1) #7 {
  %3 = load i32, ptr %1, align 8
  %4 = icmp ult i32 %3, 41
  br i1 %4, label %5, label %11

5:                                                ; preds = %2
  %6 = getelementptr inbounds nuw i8, ptr %1, i64 16
  %7 = load ptr, ptr %6, align 8
  %8 = zext nneg i32 %3 to i64
  %9 = getelementptr i8, ptr %7, i64 %8
  %10 = add nuw nsw i32 %3, 8
  store i32 %10, ptr %1, align 8
  br label %15

11:                                               ; preds = %2
  %12 = getelementptr inbounds nuw i8, ptr %1, i64 8
  %13 = load ptr, ptr %12, align 8
  %14 = getelementptr i8, ptr %13, i64 8
  store ptr %14, ptr %12, align 8
  br label %15

15:                                               ; preds = %11, %5
  %16 = phi ptr [ %9, %5 ], [ %13, %11 ]
  %17 = load ptr, ptr %16, align 8
  %.not = icmp eq ptr %17, null
  br i1 %.not, label %41, label %18

18:                                               ; preds = %15
  %19 = getelementptr inbounds nuw i8, ptr %0, i64 27120
  %20 = load ptr, ptr %19, align 8
  %.not17 = icmp eq ptr %20, null
  br i1 %.not17, label %41, label %21

21:                                               ; preds = %18
  %22 = getelementptr inbounds nuw i8, ptr %20, i64 32
  %23 = load ptr, ptr %22, align 8
  %24 = load ptr, ptr %23, align 8
  %25 = getelementptr inbounds nuw i8, ptr %24, i64 366224
  %26 = getelementptr inbounds nuw i8, ptr %24, i64 431872
  %27 = load i32, ptr %26, align 32
  %28 = sext i32 %27 to i64
  %29 = getelementptr inbounds nuw i8, ptr %24, i64 431876
  %30 = load i32, ptr %29, align 4
  %31 = sext i32 %30 to i64
  %32 = getelementptr inbounds [64 x [64 x %struct.TileBufferDec]], ptr %25, i64 0, i64 %28, i64 %31, i32 1
  %33 = load i64, ptr %32, align 8
  store i64 %33, ptr %17, align 8
  %34 = load i32, ptr %26, align 32
  %35 = sext i32 %34 to i64
  %36 = load i32, ptr %29, align 4
  %37 = sext i32 %36 to i64
  %38 = getelementptr inbounds [64 x [64 x %struct.TileBufferDec]], ptr %25, i64 0, i64 %35, i64 %37
  %39 = load ptr, ptr %38, align 16
  %40 = getelementptr inbounds nuw i8, ptr %17, i64 8
  store ptr %39, ptr %40, align 8
  br label %41

41:                                               ; preds = %15, %18, %21
  %.0 = phi i32 [ 0, %21 ], [ 1, %18 ], [ 8, %15 ]
  ret i32 %.0
}